target datalayout = "e-m:e-p270:32:32-p271:32:32-p272:64:64-i64:64-i128:128-f80:128-n8:16:32:64-S128"
target triple = "x86_64-pc-linux-gnu"

%struct.pointf_s = type { double, double }

; Function Attrs: nounwind uwtable
define internal { double, double } @arrow_type_dot(ptr noundef %0, double %1, double %2, double %3, double %4, double noundef %5, double noundef %6, i32 noundef %7) #0 {
  %9 = alloca %struct.pointf_s, align 8
  %10 = alloca %struct.pointf_s, align 8
  %11 = alloca %struct.pointf_s, align 8
  %12 = alloca ptr, align 8
  %13 = alloca double, align 8
  %14 = alloca double, align 8
  %15 = alloca i32, align 4
  %16 = alloca double, align 8
  %17 = alloca [2 x %struct.pointf_s], align 16
  %18 = alloca %struct.pointf_s, align 8
  %19 = alloca %struct.pointf_s, align 8
  %20 = alloca double, align 8
  %21 = alloca double, align 8
  %22 = alloca %struct.pointf_s, align 8
  %23 = getelementptr inbounds nuw { double, double }, ptr %10, i32 0, i32 0
  store double %1, ptr %23, align 8
  %24 = getelementptr inbounds nuw { double, double }, ptr %10, i32 0, i32 1
  store double %2, ptr %24, align 8
  %25 = getelementptr inbounds nuw { double, double }, ptr %11, i32 0, i32 0
  store double %3, ptr %25, align 8
  %26 = getelementptr inbounds nuw { double, double }, ptr %11, i32 0, i32 1
  store double %4, ptr %26, align 8
  store ptr %0, ptr %12, align 8, !tbaa !73
  store double %5, ptr %13, align 8, !tbaa !53
  store double %6, ptr %14, align 8, !tbaa !53
  store i32 %7, ptr %15, align 4, !tbaa !10
  call void @llvm.lifetime.start.p0(i64 8, ptr %16) #9
  call void @llvm.lifetime.start.p0(i64 32, ptr %17) #9
  %27 = getelementptr inbounds nuw %struct.pointf_s, ptr %11, i32 0, i32 0
  %28 = load double, ptr %27, align 8, !tbaa !57
  %29 = getelementptr inbounds nuw %struct.pointf_s, ptr %11, i32 0, i32 1
  %30 = load double, ptr %29, align 8, !tbaa !58
  %31 = call double @hypot(double noundef %28, double noundef %30) #9, !tbaa !10
  %32 = fdiv double %31, 2.000000e+00
  store double %32, ptr %16, align 8, !tbaa !53
  call void @llvm.lifetime.start.p0(i64 16, ptr %18) #9
  call void @llvm.memset.p0.i64(ptr align 8 %18, i8 0, i64 16, i1 false)
  %33 = getelementptr inbounds nuw %struct.pointf_s, ptr %11, i32 0, i32 0
  %34 = load double, ptr %33, align 8, !tbaa !57
  %35 = fcmp une double %34, 0.000000e+00
  br i1 %35, label %40, label %36

36:                                               ; preds = %8
  %37 = getelementptr inbounds nuw %struct.pointf_s, ptr %11, i32 0, i32 1
  %38 = load double, ptr %37, align 8, !tbaa !58
  %39 = fcmp une double %38, 0.000000e+00
  br i1 %39, label %40, label %85

40:                                               ; preds = %36, %8
  call void @llvm.lifetime.start.p0(i64 16, ptr %19) #9
  %41 = getelementptr inbounds nuw %struct.pointf_s, ptr %19, i32 0, i32 0
  %42 = getelementptr inbounds nuw %struct.pointf_s, ptr %11, i32 0, i32 0
  %43 = load double, ptr %42, align 8, !tbaa !57
  %44 = fneg double %43
  store double %44, ptr %41, align 8, !tbaa !57
  %45 = getelementptr inbounds nuw %struct.pointf_s, ptr %19, i32 0, i32 1
  %46 = getelementptr inbounds nuw %struct.pointf_s, ptr %11, i32 0, i32 1
  %47 = load double, ptr %46, align 8, !tbaa !58
  %48 = fneg double %47
  store double %48, ptr %45, align 8, !tbaa !58
  call void @llvm.lifetime.start.p0(i64 8, ptr %20) #9
  %49 = getelementptr inbounds nuw %struct.pointf_s, ptr %19, i32 0, i32 0
  %50 = load double, ptr %49, align 8, !tbaa !57
  %51 = getelementptr inbounds nuw %struct.pointf_s, ptr %19, i32 0, i32 0
  %52 = load double, ptr %51, align 8, !tbaa !57
  %53 = getelementptr inbounds nuw %struct.pointf_s, ptr %19, i32 0, i32 1
  %54 = load double, ptr %53, align 8, !tbaa !58
  %55 = call double @hypot(double noundef %52, double noundef %54) #9, !tbaa !10
  %56 = fdiv double %50, %55
  store double %56, ptr %20, align 8, !tbaa !53
  call void @llvm.lifetime.start.p0(i64 8, ptr %21) #9
  %57 = getelementptr inbounds nuw %struct.pointf_s, ptr %19, i32 0, i32 1
  %58 = load double, ptr %57, align 8, !tbaa !58
  %59 = getelementptr inbounds nuw %struct.pointf_s, ptr %19, i32 0, i32 0
  %60 = load double, ptr %59, align 8, !tbaa !57
  %61 = getelementptr inbounds nuw %struct.pointf_s, ptr %19, i32 0, i32 1
  %62 = load double, ptr %61, align 8, !tbaa !58
  %63 = call double @hypot(double noundef %60, double noundef %62) #9, !tbaa !10
  %64 = fdiv double %58, %63
  store double %64, ptr %21, align 8, !tbaa !53
  %65 = getelementptr inbounds nuw %struct.pointf_s, ptr %22, i32 0, i32 0
  %66 = load double, ptr %14, align 8, !tbaa !53
  %67 = fdiv double %66, 2.000000e+00
  %68 = load double, ptr %20, align 8, !tbaa !53
  %69 = fmul double %67, %68
  store double %69, ptr %65, align 8, !tbaa !57
  %70 = getelementptr inbounds nuw %struct.pointf_s, ptr %22, i32 0, i32 1
  %71 = load double, ptr %14, align 8, !tbaa !53
  %72 = fdiv double %71, 2.000000e+00
  %73 = load double, ptr %21, align 8, !tbaa !53
  %74 = fmul double %72, %73
  store double %74, ptr %70, align 8, !tbaa !58
  call void @llvm.memcpy.p0.p0.i64(ptr align 8 %18, ptr align 8 %22, i64 16, i1 false), !tbaa.struct !56
  %75 = getelementptr inbounds nuw %struct.pointf_s, ptr %18, i32 0, i32 0
  %76 = load double, ptr %75, align 8, !tbaa !57
  %77 = getelementptr inbounds nuw %struct.pointf_s, ptr %10, i32 0, i32 0
  %78 = load double, ptr %77, align 8, !tbaa !57
  %79 = fsub double %78, %76
  store double %79, ptr %77, align 8, !tbaa !57
  %80 = getelementptr inbounds nuw %struct.pointf_s, ptr %18, i32 0, i32 1
  %81 = load double, ptr %80, align 8, !tbaa !58
  %82 = getelementptr inbounds nuw %struct.pointf_s, ptr %10, i32 0, i32 1
  %83 = load double, ptr %82, align 8, !tbaa !58
  %84 = fsub double %83, %81
  store double %84, ptr %82, align 8, !tbaa !58
  call void @llvm.lifetime.end.p0(i64 8, ptr %21) #9
  call void @llvm.lifetime.end.p0(i64 8, ptr %20) #9
  call void @llvm.lifetime.end.p0(i64 16, ptr %19) #9
  br label %85

85:                                               ; preds = %40, %36
  %86 = getelementptr inbounds nuw %struct.pointf_s, ptr %10, i32 0, i32 0
  %87 = load double, ptr %86, align 8, !tbaa !57
  %88 = getelementptr inbounds nuw %struct.pointf_s, ptr %11, i32 0, i32 0
  %89 = load double, ptr %88, align 8, !tbaa !57
  %90 = fdiv double %89, 2.000000e+00
  %91 = fadd double %87, %90
  %92 = load double, ptr %16, align 8, !tbaa !53
  %93 = fsub double %91, %92
  %94 = getelementptr inbounds [2 x %struct.pointf_s], ptr %17, i64 0, i64 0
  %95 = getelementptr inbounds nuw %struct.pointf_s, ptr %94, i32 0, i32 0
  store double %93, ptr %95, align 16, !tbaa !57
  %96 = getelementptr inbounds nuw %struct.pointf_s, ptr %10, i32 0, i32 1
  %97 = load double, ptr %96, align 8, !tbaa !58
  %98 = getelementptr inbounds nuw %struct.pointf_s, ptr %11, i32 0, i32 1
  %99 = load double, ptr %98, align 8, !tbaa !58
  %100 = fdiv double %99, 2.000000e+00
  %101 = fadd double %97, %100
  %102 = load double, ptr %16, align 8, !tbaa !53
  %103 = fsub double %101, %102
  %104 = getelementptr inbounds [2 x %struct.pointf_s], ptr %17, i64 0, i64 0
  %105 = getelementptr inbounds nuw %struct.pointf_s, ptr %104, i32 0, i32 1
  store double %103, ptr %105, align 8, !tbaa !58
  %106 = getelementptr inbounds nuw %struct.pointf_s, ptr %10, i32 0, i32 0
  %107 = load double, ptr %106, align 8, !tbaa !57
  %108 = getelementptr inbounds nuw %struct.pointf_s, ptr %11, i32 0, i32 0
  %109 = load double, ptr %108, align 8, !tbaa !57
  %110 = fdiv double %109, 2.000000e+00
  %111 = fadd double %107, %110
  %112 = load double, ptr %16, align 8, !tbaa !53
  %113 = fadd double %111, %112
  %114 = getelementptr inbounds [2 x %struct.pointf_s], ptr %17, i64 0, i64 1
  %115 = getelementptr inbounds nuw %struct.pointf_s, ptr %114, i32 0, i32 0
  store double %113, ptr %115, align 16, !tbaa !57
  %116 = getelementptr inbounds nuw %struct.pointf_s, ptr %10, i32 0, i32 1
  %117 = load double, ptr %116, align 8, !tbaa !58
  %118 = getelementptr inbounds nuw %struct.pointf_s, ptr %11, i32 0, i32 1
  %119 = load double, ptr %118, align 8, !tbaa !58
  %120 = fdiv double %119, 2.000000e+00
  %121 = fadd double %117, %120
  %122 = load double, ptr %16, align 8, !tbaa !53
  %123 = fadd double %121, %122
  %124 = getelementptr inbounds [2 x %struct.pointf_s], ptr %17, i64 0, i64 1
  %125 = getelementptr inbounds nuw %struct.pointf_s, ptr %124, i32 0, i32 1
  store double %123, ptr %125, align 8, !tbaa !58
  %126 = load ptr, ptr %12, align 8, !tbaa !73
  %127 = getelementptr inbounds [2 x %struct.pointf_s], ptr %17, i64 0, i64 0
  %128 = load i32, ptr %15, align 4, !tbaa !10
  %129 = and i32 %128, 16
  %130 = icmp ne i32 %129, 0
  %131 = xor i1 %130, true
  %132 = zext i1 %131 to i32
  call void @gvrender_ellipse(ptr noundef %126, ptr noundef %127, i32 noundef %132)
  %133 = getelementptr inbounds nuw %struct.pointf_s, ptr %9, i32 0, i32 0
  %134 = getelementptr inbounds nuw %struct.pointf_s, ptr %10, i32 0, i32 0
  %135 = load double, ptr %134, align 8, !tbaa !57
  %136 = getelementptr inbounds nuw %struct.pointf_s, ptr %11, i32 0, i32 0
  %137 = load double, ptr %136, align 8, !tbaa !57
  %138 = fadd double %135, %137
  store double %138, ptr %133, align 8, !tbaa !57
  %139 = getelementptr inbounds nuw %struct.pointf_s, ptr %9, i32 0, i32 1
  %140 = getelementptr inbounds nuw %struct.pointf_s, ptr %10, i32 0, i32 1
  %141 = load double, ptr %140, align 8, !tbaa !58
  %142 = getelementptr inbounds nuw %struct.pointf_s, ptr %11, i32 0, i32 1
  %143 = load double, ptr %142, align 8, !tbaa !58
  %144 = fadd double %141, %143
  store double %144, ptr %139, align 8, !tbaa !58
  %145 = getelementptr inbounds nuw %struct.pointf_s, ptr %18, i32 0, i32 0
  %146 = load double, ptr %145, align 8, !tbaa !57
  %147 = getelementptr inbounds nuw %struct.pointf_s, ptr %9, i32 0, i32 0
  %148 = load double, ptr %147, align 8, !tbaa !57
  %149 = fsub double %148, %146
  store double %149, ptr %147, align 8, !tbaa !57
  %150 = getelementptr inbounds nuw %struct.pointf_s, ptr %18, i32 0, i32 1
  %151 = load double, ptr %150, align 8, !tbaa !58
  %152 = getelementptr inbounds nuw %struct.pointf_s, ptr %9, i32 0, i32 1
  %153 = load double, ptr %152, align 8, !tbaa !58
  %154 = fsub double %153, %151
  store double %154, ptr %152, align 8, !tbaa !58
  call void @llvm.lifetime.end.p0(i64 16, ptr %18) #9
  call void @llvm.lifetime.end.p0(i64 32, ptr %17) #9
  call void @llvm.lifetime.end.p0(i64 8, ptr %16) #9
  %155 = load { double, double }, ptr %9, align 8
  ret { double, double } %155
}