; Function Attrs: nounwind uwtable
define internal { double, double } @arrow_type_dot(ptr noundef %0, double %1, double %2, double %3, double %4, double %5, double noundef %6, i32 noundef %7) #0 {
  %9 = alloca [2 x %struct.pointf_s], align 16
  call void @llvm.lifetime.start.p0(i64 32, ptr nonnull %9) #12
  %10 = tail call double @hypot(double noundef %3, double noundef %4) #12, !tbaa !3
  %11 = fcmp une double %3, 0.000000e+00
  %12 = fcmp une double %4, 0.000000e+00
  %or.cond = or i1 %11, %12
  br i1 %or.cond, label %13, label %25

13:                                               ; preds = %8
  %14 = fneg double %3
  %15 = fneg double %4
  %16 = tail call double @hypot(double noundef %14, double noundef %15) #12, !tbaa !3
  %17 = fdiv double %14, %16
  %18 = tail call double @hypot(double noundef %14, double noundef %15) #12, !tbaa !3
  %19 = fdiv double %15, %18
  %20 = fmul double %6, 5.000000e-01
  %21 = fmul double %20, %17
  %22 = fmul double %20, %19
  %23 = fsub double %1, %21
  %24 = fsub double %2, %22
  br label %25

25:                                               ; preds = %8, %13
  %.sroa.611.0 = phi double [ %22, %13 ], [ 0.000000e+00, %8 ]
  %.sroa.09.0 = phi double [ %21, %13 ], [ 0.000000e+00, %8 ]
  %.sroa.031.0 = phi double [ %23, %13 ], [ %1, %8 ]
  %.sroa.635.0 = phi double [ %24, %13 ], [ %2, %8 ]
  %26 = fmul double %10, 5.000000e-01
  %27 = fmul double %3, 5.000000e-01
  %28 = fadd double %27, %.sroa.031.0
  %29 = fsub double %28, %26
  store double %29, ptr %9, align 16, !tbaa !59
  %30 = fmul double %4, 5.000000e-01
  %31 = fadd double %30, %.sroa.635.0
  %32 = fsub double %31, %26
  %33 = getelementptr inbounds nuw i8, ptr %9, i64 8
  store double %32, ptr %33, align 8, !tbaa !60
  %34 = fadd double %26, %28
  %35 = getelementptr inbounds nuw i8, ptr %9, i64 16
  store double %34, ptr %35, align 16, !tbaa !59
  %36 = fadd double %26, %31
  %37 = getelementptr inbounds nuw i8, ptr %9, i64 24
  store double %36, ptr %37, align 8, !tbaa !60
  %38 = lshr i32 %7, 4
  %.lobit = and i32 %38, 1
  %39 = xor i32 %.lobit, 1
  call void @gvrender_ellipse(ptr noundef %0, ptr noundef nonnull %9, i32 noundef %39) #12
  %40 = fadd double %3, %.sroa.031.0
  %41 = fadd double %4, %.sroa.635.0
  %42 = fsub double %40, %.sroa.09.0
  %43 = fsub double %41, %.sroa.611.0
  call void @llvm.lifetime.end.p0(i64 32, ptr nonnull %9) #12
  %.fca.0.insert = insertvalue { double, double } poison, double %42, 0
  %.fca.1.insert = insertvalue { double, double } %.fca.0.insert, double %43, 1
  ret { double, double } %.fca.1.insert
}